; Function Attrs: mustprogress uwtable
define void @_ZN5osgeo4proj5datum9Ellipsoid21createFlattenedSphereERKNS0_4util11PropertyMapERKNS0_6common6LengthERKNS7_5ScaleERKNSt7__cxx1112basic_stringIcSt11char_traitsIcESaIcEEE(ptr dead_on_unwind noalias writable sret(%"class.dropbox::oxygen::nn.164") align 8 %0, ptr noundef nonnull align 8 dereferenceable(8) %1, ptr noundef nonnull align 8 dereferenceable(24) %2, ptr noundef nonnull align 8 dereferenceable(24) %3, ptr noundef nonnull align 8 dereferenceable(32) %4) local_unnamed_addr #0 align 2 personality ptr @__gxx_personality_v0 {
  %6 = tail call noundef double @_ZNK5osgeo4proj6common7Measure5valueEv(ptr noundef nonnull align 8 dereferenceable(24) %3) #25
  %7 = fcmp oeq double %6, 0.000000e+00
  br i1 %7, label %8, label %9

8:                                                ; preds = %5
  tail call void @_ZN5osgeo4proj5datum9Ellipsoid14nn_make_sharedIS2_JRKNS0_6common6LengthERKNSt7__cxx1112basic_stringIcSt11char_traitsIcESaIcEEEEEEN7dropbox6oxygen2nnISt10shared_ptrIT_EEEDpOT0_(ptr dead_on_unwind writable sret(%"class.dropbox::oxygen::nn.164") align 8 %0, ptr noundef nonnull align 8 dereferenceable(24) %2, ptr noundef nonnull align 8 dereferenceable(32) %4)
  br label %10

9:                                                ; preds = %5
  tail call void @_ZN5osgeo4proj5datum9Ellipsoid14nn_make_sharedIS2_JRKNS0_6common6LengthERKNS4_5ScaleERKNSt7__cxx1112basic_stringIcSt11char_traitsIcESaIcEEEEEEN7dropbox6oxygen2nnISt10shared_ptrIT_EEEDpOT0_(ptr dead_on_unwind writable sret(%"class.dropbox::oxygen::nn.164") align 8 %0, ptr noundef nonnull align 8 dereferenceable(24) %2, ptr noundef nonnull align 8 dereferenceable(24) %3, ptr noundef nonnull align 8 dereferenceable(32) %4)
  br label %10

10:                                               ; preds = %9, %8
  %11 = load ptr, ptr %0, align 8
  invoke void @_ZN5osgeo4proj6common16IdentifiedObject13setPropertiesERKNS0_4util11PropertyMapE(ptr noundef nonnull align 8 dereferenceable(40) %11, ptr noundef nonnull align 8 dereferenceable(8) %1)
          to label %14 unwind label %12

12:                                               ; preds = %10
  %13 = landingpad { ptr, i32 }
          cleanup
  tail call void @_ZN7dropbox6oxygen2nnISt10shared_ptrIN5osgeo4proj5datum9EllipsoidEEED2Ev(ptr noundef nonnull align 8 dereferenceable(16) %0) #26
  resume { ptr, i32 } %13

14:                                               ; preds = %10
  ret void
}